target datalayout = "e-m:e-p270:32:32-p271:32:32-p272:64:64-i64:64-i128:128-f80:128-n8:16:32:64-S128"
target triple = "x86_64-pc-linux-gnu"

%struct._ct_dissector_info = type { ptr }
%struct._packet_info = type { ptr, ptr, i32, i32, %struct.nstime_t, %struct.nstime_t, %struct.nstime_t, i32, ptr, ptr, ptr, ptr, %struct._address, %struct._address, %struct._address, %struct._address, %struct._address, %struct._address, i32, ptr, i32, %struct.anon, i32, i32, i32, i32, ptr, i32, ptr, ptr, i16, i16, i32, i32, i16, i32, i32, ptr, ptr, ptr, i8, i8, i16, i16, i16, i32, i16, i16, ptr, ptr, ptr, ptr, ptr, i32 }
%struct.nstime_t = type { i64, i32 }
%struct._address = type { i32, i32, ptr, ptr }
%struct.anon = type { i8, [3 x i8] }
%struct.tcp_analysis = type { %struct._tcp_flow_t, %struct._tcp_flow_t, ptr, ptr, ptr, ptr, %struct.nstime_t, %struct.nstime_t, %struct.nstime_t, %struct.nstime_t, i32, i16, i8, ptr, i8, ptr, i32, i32, i32 }
%struct._tcp_flow_t = type { i8, i32, i32, i32, i16, i16, i16, i32, i32, i32, i8, i32, i32, ptr, i16, i32, i32, ptr, ptr, ptr, ptr }
%struct._frame_data = type { i32, i32, i32, i32, i64, ptr, ptr, ptr, i16, i16, %struct.nstime_t, %struct.nstime_t, i32, i32, i8 }
%struct._conversation_hash_t = type { ptr, ptr, ptr, i32 }
%struct.mptcp_subflow = type { i8, i32, i8, ptr, ptr, ptr }
%struct._mptcp_meta_flow_t = type { i8, i8, i64, i64, i64, i8, i64, i32, i32, i64, i64, %struct._address, %struct._address, i32, i32 }
%struct.mptcp_analysis = type { i16, [2 x %struct._mptcp_meta_flow_t], i32, i8, ptr, ptr, i8 }

@tcp_ct_dissector_info = internal global %struct._ct_dissector_info { ptr @tcp_conv_get_filter_type }, align 8

; Function Attrs: nounwind uwtable
define internal i32 @mptcpip_conversation_packet(ptr noundef %0, ptr noundef %1, ptr noundef %2, ptr noundef %3, i32 noundef %4) #0 {
  %6 = alloca ptr, align 8
  %7 = alloca ptr, align 8
  %8 = alloca ptr, align 8
  %9 = alloca ptr, align 8
  %10 = alloca i32, align 4
  %11 = alloca ptr, align 8
  %12 = alloca ptr, align 8
  %13 = alloca ptr, align 8
  store ptr %0, ptr %6, align 8
  store ptr %1, ptr %7, align 8
  store ptr %2, ptr %8, align 8
  store ptr %3, ptr %9, align 8
  store i32 %4, ptr %10, align 4
  %14 = load ptr, ptr %6, align 8
  store ptr %14, ptr %11, align 8
  %15 = load i32, ptr %10, align 4
  %16 = load ptr, ptr %11, align 8
  %17 = getelementptr inbounds %struct._conversation_hash_t, ptr %16, i32 0, i32 3
  store i32 %15, ptr %17, align 8
  %18 = load ptr, ptr %9, align 8
  store ptr %18, ptr %12, align 8
  %19 = load ptr, ptr %12, align 8
  %20 = getelementptr inbounds %struct.tcp_analysis, ptr %19, i32 0, i32 2
  %21 = load ptr, ptr %20, align 8
  %22 = getelementptr inbounds %struct._tcp_flow_t, ptr %21, i32 0, i32 20
  %23 = load ptr, ptr %22, align 8
  %24 = getelementptr inbounds %struct.mptcp_subflow, ptr %23, i32 0, i32 5
  %25 = load ptr, ptr %24, align 8
  store ptr %25, ptr %13, align 8
  %26 = load ptr, ptr %11, align 8
  %27 = load ptr, ptr %13, align 8
  %28 = getelementptr inbounds %struct._mptcp_meta_flow_t, ptr %27, i32 0, i32 11
  %29 = load ptr, ptr %13, align 8
  %30 = getelementptr inbounds %struct._mptcp_meta_flow_t, ptr %29, i32 0, i32 12
  %31 = load ptr, ptr %13, align 8
  %32 = getelementptr inbounds %struct._mptcp_meta_flow_t, ptr %31, i32 0, i32 13
  %33 = load i32, ptr %32, align 8
  %34 = load ptr, ptr %13, align 8
  %35 = getelementptr inbounds %struct._mptcp_meta_flow_t, ptr %34, i32 0, i32 14
  %36 = load i32, ptr %35, align 4
  %37 = load ptr, ptr %12, align 8
  %38 = getelementptr inbounds %struct.tcp_analysis, ptr %37, i32 0, i32 13
  %39 = load ptr, ptr %38, align 8
  %40 = getelementptr inbounds %struct.mptcp_analysis, ptr %39, i32 0, i32 2
  %41 = load i32, ptr %40, align 8
  %42 = load ptr, ptr %7, align 8
  %43 = getelementptr inbounds %struct._packet_info, ptr %42, i32 0, i32 8
  %44 = load ptr, ptr %43, align 8
  %45 = getelementptr inbounds %struct._frame_data, ptr %44, i32 0, i32 1
  %46 = load i32, ptr %45, align 4
  %47 = load ptr, ptr %7, align 8
  %48 = getelementptr inbounds %struct._packet_info, ptr %47, i32 0, i32 5
  %49 = load ptr, ptr %7, align 8
  %50 = getelementptr inbounds %struct._packet_info, ptr %49, i32 0, i32 4
  call void @add_conversation_table_data_with_conv_id(ptr noundef %26, ptr noundef %28, ptr noundef %30, i32 noundef %33, i32 noundef %36, i32 noundef %41, i32 noundef 1, i32 noundef %46, ptr noundef %48, ptr noundef %50, ptr noundef @tcp_ct_dissector_info, i32 noundef 2)
  ret i32 1
}