; Function Attrs: nounwind uwtable
define internal noundef i32 @mptcpip_conversation_packet(ptr noundef initializes((24, 28)) %0, ptr noundef %1, ptr readnone captures(none) %2, ptr noundef readonly captures(none) %3, i32 noundef %4) #0 {
  %6 = getelementptr inbounds nuw i8, ptr %0, i64 24
  store i32 %4, ptr %6, align 8
  %7 = getelementptr inbounds nuw i8, ptr %3, i64 208
  %8 = load ptr, ptr %7, align 8
  %9 = getelementptr inbounds nuw i8, ptr %8, i64 96
  %10 = load ptr, ptr %9, align 8
  %11 = getelementptr inbounds nuw i8, ptr %10, i64 32
  %12 = load ptr, ptr %11, align 8
  %13 = getelementptr inbounds nuw i8, ptr %12, i64 72
  %14 = getelementptr inbounds nuw i8, ptr %12, i64 96
  %15 = getelementptr inbounds nuw i8, ptr %12, i64 120
  %16 = load i32, ptr %15, align 8
  %17 = getelementptr inbounds nuw i8, ptr %12, i64 124
  %18 = load i32, ptr %17, align 4
  %19 = getelementptr inbounds nuw i8, ptr %3, i64 312
  %20 = load ptr, ptr %19, align 8
  %21 = getelementptr inbounds nuw i8, ptr %20, i64 264
  %22 = load i32, ptr %21, align 8
  %23 = getelementptr inbounds nuw i8, ptr %1, i64 80
  %24 = load ptr, ptr %23, align 8
  %25 = getelementptr inbounds nuw i8, ptr %24, i64 4
  %26 = load i32, ptr %25, align 4
  %27 = getelementptr inbounds nuw i8, ptr %1, i64 40
  %28 = getelementptr inbounds nuw i8, ptr %1, i64 24
  tail call void @add_conversation_table_data_with_conv_id(ptr noundef %0, ptr noundef nonnull %13, ptr noundef nonnull %14, i32 noundef %16, i32 noundef %18, i32 noundef %22, i32 noundef 1, i32 noundef %26, ptr noundef nonnull %27, ptr noundef nonnull %28, ptr noundef nonnull @tcp_ct_dissector_info, i32 noundef 2) #20
  ret i32 1
}